; Function Attrs: mustprogress uwtable
define dso_local noundef ptr @_ZN4base9Histogram10FactoryGetERKNSt7__cxx1112basic_stringIcSt11char_traitsIcESaIcEEEiiji(ptr noundef nonnull align 8 dereferenceable(32) %name, i32 noundef %minimum, i32 noundef %maximum, i32 noundef %bucket_count, i32 noundef %flags) local_unnamed_addr #0 align 2 {
entry:
  %ref.tmp = alloca %"class.base::Histogram::Factory", align 8
  %spec.select = tail call i32 @llvm.smax.i32(i32 %minimum, i32 1)
  %0 = load i32, ptr @_ZN4base13HistogramBase15kSampleType_MAXE, align 4
  %cmp1.not.i = icmp sgt i32 %0, %maximum
  %sub.i = add nsw i32 %0, -1
  %maximum.addr.0 = select i1 %cmp1.not.i, i32 %maximum, i32 %sub.i
  %bucket_count.addr.1 = tail call i32 @llvm.umin.i32(i32 %bucket_count, i32 16383)
  store ptr getelementptr inbounds ({ [5 x ptr] }, ptr @_ZTVN4base9Histogram7FactoryE, i64 0, i32 0, i64 2), ptr %ref.tmp, align 8
  %name_.i.i = getelementptr inbounds i8, ptr %ref.tmp, i64 8
  store ptr %name, ptr %name_.i.i, align 8
  %histogram_type_.i.i = getelementptr inbounds i8, ptr %ref.tmp, i64 16
  store i32 0, ptr %histogram_type_.i.i, align 8
  %minimum_.i.i = getelementptr inbounds i8, ptr %ref.tmp, i64 20
  store i32 %spec.select, ptr %minimum_.i.i, align 4
  %maximum_.i.i = getelementptr inbounds i8, ptr %ref.tmp, i64 24
  store i32 %maximum.addr.0, ptr %maximum_.i.i, align 8
  %bucket_count_.i.i = getelementptr inbounds i8, ptr %ref.tmp, i64 28
  store i32 %bucket_count.addr.1, ptr %bucket_count_.i.i, align 4
  %flags_.i.i = getelementptr inbounds i8, ptr %ref.tmp, i64 32
  store i32 %flags, ptr %flags_.i.i, align 8
  %call1 = call noundef ptr @_ZN4base9Histogram7Factory5BuildEv(ptr noundef nonnull align 8 dereferenceable(36) %ref.tmp)
  ret ptr %call1
}